target datalayout = "e-m:e-p270:32:32-p271:32:32-p272:64:64-i64:64-i128:128-f80:128-n8:16:32:64-S128"
target triple = "x86_64-pc-linux-gnu"

%struct.functionsLibCtx = type { ptr, ptr, i64, ptr }
%struct.functionsLibEngineStats = type { i64, i64 }

; Function Attrs: nounwind uwtable
define dso_local void @functionsLibCtxClear(ptr noundef %0) #1 {
  %2 = alloca ptr, align 8
  %3 = alloca ptr, align 8
  %4 = alloca ptr, align 8
  %5 = alloca ptr, align 8
  store ptr %0, ptr %2, align 8, !tbaa !38
  %6 = load ptr, ptr %2, align 8, !tbaa !38
  %7 = getelementptr inbounds nuw %struct.functionsLibCtx, ptr %6, i32 0, i32 1
  %8 = load ptr, ptr %7, align 8, !tbaa !40
  call void @dictEmpty(ptr noundef %8, ptr noundef null)
  %9 = load ptr, ptr %2, align 8, !tbaa !38
  %10 = getelementptr inbounds nuw %struct.functionsLibCtx, ptr %9, i32 0, i32 0
  %11 = load ptr, ptr %10, align 8, !tbaa !42
  call void @dictEmpty(ptr noundef %11, ptr noundef null)
  call void @llvm.lifetime.start.p0(i64 8, ptr %3) #11
  %12 = load ptr, ptr %2, align 8, !tbaa !38
  %13 = getelementptr inbounds nuw %struct.functionsLibCtx, ptr %12, i32 0, i32 3
  %14 = load ptr, ptr %13, align 8, !tbaa !43
  %15 = call ptr @dictGetIterator(ptr noundef %14)
  store ptr %15, ptr %3, align 8, !tbaa !44
  call void @llvm.lifetime.start.p0(i64 8, ptr %4) #11
  store ptr null, ptr %4, align 8, !tbaa !46
  br label %16

16:                                               ; preds = %20, %1
  %17 = load ptr, ptr %3, align 8, !tbaa !44
  %18 = call ptr @dictNext(ptr noundef %17)
  store ptr %18, ptr %4, align 8, !tbaa !46
  %19 = icmp ne ptr %18, null
  br i1 %19, label %20, label %27

20:                                               ; preds = %16
  call void @llvm.lifetime.start.p0(i64 8, ptr %5) #11
  %21 = load ptr, ptr %4, align 8, !tbaa !46
  %22 = call ptr @dictGetVal(ptr noundef %21)
  store ptr %22, ptr %5, align 8, !tbaa !23
  %23 = load ptr, ptr %5, align 8, !tbaa !23
  %24 = getelementptr inbounds nuw %struct.functionsLibEngineStats, ptr %23, i32 0, i32 1
  store i64 0, ptr %24, align 8, !tbaa !48
  %25 = load ptr, ptr %5, align 8, !tbaa !23
  %26 = getelementptr inbounds nuw %struct.functionsLibEngineStats, ptr %25, i32 0, i32 0
  store i64 0, ptr %26, align 8, !tbaa !50
  call void @llvm.lifetime.end.p0(i64 8, ptr %5) #11
  br label %16, !llvm.loop !51

27:                                               ; preds = %16
  %28 = load ptr, ptr %3, align 8, !tbaa !44
  call void @dictReleaseIterator(ptr noundef %28)
  %29 = load ptr, ptr %2, align 8, !tbaa !38
  %30 = getelementptr inbounds nuw %struct.functionsLibCtx, ptr %29, i32 0, i32 2
  store i64 0, ptr %30, align 8, !tbaa !53
  call void @llvm.lifetime.end.p0(i64 8, ptr %4) #11
  call void @llvm.lifetime.end.p0(i64 8, ptr %3) #11
  ret void
}