; Function Attrs: nounwind uwtable
define dso_local void @functionsLibCtxClear(ptr noundef captures(none) %0) local_unnamed_addr #1 {
  %2 = getelementptr inbounds nuw i8, ptr %0, i64 8
  %3 = load ptr, ptr %2, align 8, !tbaa !33
  tail call void @dictEmpty(ptr noundef %3, ptr noundef null) #12
  %4 = load ptr, ptr %0, align 8, !tbaa !35
  tail call void @dictEmpty(ptr noundef %4, ptr noundef null) #12
  %5 = getelementptr inbounds nuw i8, ptr %0, i64 24
  %6 = load ptr, ptr %5, align 8, !tbaa !36
  %7 = tail call ptr @dictGetIterator(ptr noundef %6) #12
  %8 = tail call ptr @dictNext(ptr noundef %7) #12
  %.not9 = icmp eq ptr %8, null
  br i1 %.not9, label %._crit_edge, label %.lr.ph

.lr.ph:                                           ; preds = %1, %.lr.ph
  %9 = phi ptr [ %11, %.lr.ph ], [ %8, %1 ]
  %10 = tail call ptr @dictGetVal(ptr noundef nonnull %9) #12
  tail call void @llvm.memset.p0.i64(ptr noundef nonnull align 8 dereferenceable(16) %10, i8 0, i64 16, i1 false)
  %11 = tail call ptr @dictNext(ptr noundef %7) #12
  %.not = icmp eq ptr %11, null
  br i1 %.not, label %._crit_edge, label %.lr.ph, !llvm.loop !37

._crit_edge:                                      ; preds = %.lr.ph, %1
  tail call void @dictReleaseIterator(ptr noundef %7) #12
  %12 = getelementptr inbounds nuw i8, ptr %0, i64 16
  store i64 0, ptr %12, align 8, !tbaa !39
  ret void
}